target datalayout = "e-m:e-p270:32:32-p271:32:32-p272:64:64-i64:64-i128:128-f80:128-n8:16:32:64-S128"
target triple = "x86_64-pc-linux-gnu"

; Function Attrs: nounwind uwtable
define internal void @set_legacy_nid(ptr noundef %0, ptr noundef %1) #0 {
  %3 = alloca ptr, align 8
  %4 = alloca ptr, align 8
  %5 = alloca i32, align 4
  %6 = alloca ptr, align 8
  %7 = alloca ptr, align 8
  %8 = alloca i32, align 4
  store ptr %0, ptr %3, align 8, !tbaa !32
  store ptr %1, ptr %4, align 8, !tbaa !81
  call void @llvm.lifetime.start.p0(i64 4, ptr %5) #9
  call void @llvm.lifetime.start.p0(i64 8, ptr %6) #9
  %9 = load ptr, ptr %4, align 8, !tbaa !81
  store ptr %9, ptr %6, align 8, !tbaa !66
  call void @llvm.lifetime.start.p0(i64 8, ptr %7) #9
  %10 = load ptr, ptr %3, align 8, !tbaa !32
  %11 = call ptr @OBJ_NAME_get(ptr noundef %10, i32 noundef 2)
  store ptr %11, ptr %7, align 8, !tbaa !81
  %12 = load ptr, ptr %6, align 8, !tbaa !66
  %13 = load i32, ptr %12, align 4, !tbaa !29
  %14 = icmp eq i32 %13, -1
  br i1 %14, label %15, label %16

15:                                               ; preds = %2
  store i32 1, ptr %8, align 4
  br label %36

16:                                               ; preds = %2
  %17 = load ptr, ptr %7, align 8, !tbaa !81
  %18 = icmp eq ptr %17, null
  br i1 %18, label %19, label %20

19:                                               ; preds = %16
  store i32 1, ptr %8, align 4
  br label %36

20:                                               ; preds = %16
  %21 = load ptr, ptr %7, align 8, !tbaa !81
  %22 = call i32 @EVP_CIPHER_get_nid(ptr noundef %21)
  store i32 %22, ptr %5, align 4, !tbaa !29
  %23 = load ptr, ptr %6, align 8, !tbaa !66
  %24 = load i32, ptr %23, align 4, !tbaa !29
  %25 = icmp ne i32 %24, 0
  br i1 %25, label %26, label %33

26:                                               ; preds = %20
  %27 = load ptr, ptr %6, align 8, !tbaa !66
  %28 = load i32, ptr %27, align 4, !tbaa !29
  %29 = load i32, ptr %5, align 4, !tbaa !29
  %30 = icmp ne i32 %28, %29
  br i1 %30, label %31, label %33

31:                                               ; preds = %26
  %32 = load ptr, ptr %6, align 8, !tbaa !66
  store i32 -1, ptr %32, align 4, !tbaa !29
  store i32 1, ptr %8, align 4
  br label %36

33:                                               ; preds = %26, %20
  %34 = load i32, ptr %5, align 4, !tbaa !29
  %35 = load ptr, ptr %6, align 8, !tbaa !66
  store i32 %34, ptr %35, align 4, !tbaa !29
  store i32 0, ptr %8, align 4
  br label %36

36:                                               ; preds = %33, %31, %19, %15
  call void @llvm.lifetime.end.p0(i64 8, ptr %7) #9
  call void @llvm.lifetime.end.p0(i64 8, ptr %6) #9
  call void @llvm.lifetime.end.p0(i64 4, ptr %5) #9
  %37 = load i32, ptr %8, align 4
  switch i32 %37, label %39 [
    i32 0, label %38
    i32 1, label %38
  ]

38:                                               ; preds = %36, %36
  ret void

39:                                               ; preds = %36
  unreachable
}